; ModuleID = 'source-C-CXX/14/202.c'
source_filename = "source-C-CXX/14/202.c"
target datalayout = "e-m:e-p270:32:32-p271:32:32-p272:64:64-i64:64-f80:128-n8:16:32:64-S128"
target triple = "x86_64-pc-linux-gnu"

@.str = private unnamed_addr constant [3 x i8] c"%d\00", align 1

; Function Attrs: nofree nounwind sspstrong uwtable
define dso_local i32 @main() local_unnamed_addr #0 {
  %1 = alloca [100 x [100 x i32]], align 16
  %2 = alloca [100 x i32], align 16
  %3 = alloca i32, align 4
  %4 = bitcast [100 x [100 x i32]]* %1 to i8*
  call void @llvm.lifetime.start.p0i8(i64 40000, i8* nonnull %4) #4
  %5 = bitcast [100 x i32]* %2 to i8*
  call void @llvm.lifetime.start.p0i8(i64 400, i8* nonnull %5) #4
  call void @llvm.memset.p0i8.i64(i8* noundef nonnull align 16 dereferenceable(400) %5, i8 0, i64 400, i1 false)
  %6 = bitcast i32* %3 to i8*
  call void @llvm.lifetime.start.p0i8(i64 4, i8* nonnull %6) #4
  %7 = call i32 (i8*, ...) @__isoc99_scanf(i8* getelementptr inbounds ([3 x i8], [3 x i8]* @.str, i64 0, i64 0), i32* nonnull %3)
  %8 = load i32, i32* %3, align 4, !tbaa !5
  %9 = icmp slt i32 %8, 1
  br i1 %9, label %42, label %10

10:                                               ; preds = %0, %31
  %11 = phi i32 [ %32, %31 ], [ %8, %0 ]
  %12 = phi i64 [ %40, %31 ], [ 1, %0 ]
  %13 = phi i32 [ %37, %31 ], [ 0, %0 ]
  %14 = phi i32 [ %39, %31 ], [ 0, %0 ]
  %15 = getelementptr inbounds [100 x i32], [100 x i32]* %2, i64 0, i64 %12
  %16 = icmp slt i32 %11, 1
  br i1 %16, label %31, label %17

17:                                               ; preds = %10, %26
  %18 = phi i64 [ %27, %26 ], [ 1, %10 ]
  %19 = getelementptr inbounds [100 x [100 x i32]], [100 x [100 x i32]]* %1, i64 0, i64 %12, i64 %18
  %20 = call i32 (i8*, ...) @__isoc99_scanf(i8* getelementptr inbounds ([3 x i8], [3 x i8]* @.str, i64 0, i64 0), i32* nonnull %19)
  %21 = load i32, i32* %19, align 4, !tbaa !5
  %22 = icmp eq i32 %21, 0
  br i1 %22, label %23, label %26

23:                                               ; preds = %17
  %24 = load i32, i32* %15, align 4, !tbaa !5
  %25 = add nsw i32 %24, 1
  store i32 %25, i32* %15, align 4, !tbaa !5
  br label %26

26:                                               ; preds = %17, %23
  %27 = add nuw nsw i64 %18, 1
  %28 = load i32, i32* %3, align 4, !tbaa !5
  %29 = sext i32 %28 to i64
  %30 = icmp slt i64 %18, %29
  br i1 %30, label %17, label %31, !llvm.loop !9

31:                                               ; preds = %26, %10
  %32 = phi i32 [ %11, %10 ], [ %28, %26 ]
  %33 = sext i32 %32 to i64
  %34 = load i32, i32* %15, align 4, !tbaa !5
  %35 = icmp sgt i32 %34, 0
  %36 = zext i1 %35 to i32
  %37 = add nuw nsw i32 %13, %36
  %38 = icmp sgt i32 %34, %14
  %39 = select i1 %38, i32 %34, i32 %14
  %40 = add nuw nsw i64 %12, 1
  %41 = icmp slt i64 %12, %33
  br i1 %41, label %10, label %42, !llvm.loop !11

42:                                               ; preds = %31, %0
  %43 = phi i32 [ 0, %0 ], [ %39, %31 ]
  %44 = phi i32 [ 0, %0 ], [ %37, %31 ]
  %45 = add i32 %43, -2
  %46 = mul i32 %44, %45
  %47 = mul i32 %43, -2
  %48 = add i32 %47, 4
  %49 = add i32 %48, %46
  %50 = call i32 (i8*, ...) @printf(i8* nonnull dereferenceable(1) getelementptr inbounds ([3 x i8], [3 x i8]* @.str, i64 0, i64 0), i32 %49)
  call void @llvm.lifetime.end.p0i8(i64 4, i8* nonnull %6) #4
  call void @llvm.lifetime.end.p0i8(i64 400, i8* nonnull %5) #4
  call void @llvm.lifetime.end.p0i8(i64 40000, i8* nonnull %4) #4
  ret i32 0
}

; Function Attrs: argmemonly mustprogress nofree nosync nounwind willreturn
declare void @llvm.lifetime.start.p0i8(i64 immarg, i8* nocapture) #1

; Function Attrs: argmemonly mustprogress nofree nounwind willreturn writeonly
declare void @llvm.memset.p0i8.i64(i8* nocapture writeonly, i8, i64, i1 immarg) #2

; Function Attrs: nofree nounwind
declare noundef i32 @__isoc99_scanf(i8* nocapture noundef readonly, ...) local_unnamed_addr #3

; Function Attrs: nofree nounwind
declare noundef i32 @printf(i8* nocapture noundef readonly, ...) local_unnamed_addr #3

; Function Attrs: argmemonly mustprogress nofree nosync nounwind willreturn
declare void @llvm.lifetime.end.p0i8(i64 immarg, i8* nocapture) #1


!llvm.module.flags = !{!0, !1, !2, !3}
!llvm.ident = !{!4}

!0 = !{i32 1, !"wchar_size", i32 4}
!1 = !{i32 7, !"PIC Level", i32 2}
!2 = !{i32 7, !"PIE Level", i32 2}
!3 = !{i32 7, !"uwtable", i32 1}
!4 = !{!"clang version 13.0.0"}
!5 = !{!6, !6, i64 0}
!6 = !{!"int", !7, i64 0}
!7 = !{!"omnipotent char", !8, i64 0}
!8 = !{!"Simple C/C++ TBAA"}
!9 = distinct !{!9, !10}
!10 = !{!"llvm.loop.mustprogress"}
!11 = distinct !{!11, !10, !12}
!12 = !{!"llvm.loop.unswitch.partial.disable"}
